; Function Attrs: mustprogress nofree norecurse nosync nounwind willreturn memory(read, inaccessiblemem: none) uwtable
define hidden noundef zeroext i1 @_ZNK4cvc58internal6String5isLeqERKS1_(ptr nocapture noundef nonnull readonly align 8 dereferenceable(24) %this, ptr nocapture noundef nonnull readonly align 8 dereferenceable(24) %y) local_unnamed_addr #4 align 2 {
entry:
  %_M_finish.i.i = getelementptr inbounds i8, ptr %this, i64 8
  %0 = load ptr, ptr %_M_finish.i.i, align 8
  %1 = load ptr, ptr %this, align 8
  %sub.ptr.lhs.cast.i.i = ptrtoint ptr %0 to i64
  %sub.ptr.rhs.cast.i.i = ptrtoint ptr %1 to i64
  %sub.ptr.sub.i.i = sub i64 %sub.ptr.lhs.cast.i.i, %sub.ptr.rhs.cast.i.i
  %sub.ptr.div.i.i = ashr exact i64 %sub.ptr.sub.i.i, 2
  %cmp15.not = icmp eq ptr %0, %1
  br i1 %cmp15.not, label %return, label %for.body.lr.ph

for.body.lr.ph:                                   ; preds = %entry
  %_M_finish.i.i9 = getelementptr inbounds i8, ptr %y, i64 8
  %2 = load ptr, ptr %_M_finish.i.i9, align 8
  %3 = load ptr, ptr %y, align 8
  %sub.ptr.lhs.cast.i.i10 = ptrtoint ptr %2 to i64
  %sub.ptr.rhs.cast.i.i11 = ptrtoint ptr %3 to i64
  %sub.ptr.sub.i.i12 = sub i64 %sub.ptr.lhs.cast.i.i10, %sub.ptr.rhs.cast.i.i11
  %sub.ptr.div.i.i13 = ashr exact i64 %sub.ptr.sub.i.i12, 2
  br label %for.body

for.body:                                         ; preds = %if.end12, %for.body.lr.ph
  %conv17 = phi i64 [ 0, %for.body.lr.ph ], [ %conv, %if.end12 ]
  %i.016 = phi i32 [ 0, %for.body.lr.ph ], [ %inc, %if.end12 ]
  %cmp4.not = icmp ugt i64 %sub.ptr.div.i.i13, %conv17
  br i1 %cmp4.not, label %if.end, label %return

if.end:                                           ; preds = %for.body
  %add.ptr.i = getelementptr inbounds i32, ptr %1, i64 %conv17
  %4 = load i32, ptr %add.ptr.i, align 4
  %add.ptr.i14 = getelementptr inbounds i32, ptr %3, i64 %conv17
  %5 = load i32, ptr %add.ptr.i14, align 4
  %cmp10 = icmp ugt i32 %4, %5
  br i1 %cmp10, label %return, label %if.end12

if.end12:                                         ; preds = %if.end
  %cmp13 = icmp uge i32 %4, %5
  %inc = add i32 %i.016, 1
  %conv = zext i32 %inc to i64
  %cmp = icmp ugt i64 %sub.ptr.div.i.i, %conv
  %or.cond = select i1 %cmp13, i1 %cmp, i1 false
  br i1 %or.cond, label %for.body, label %return, !llvm.loop !34

return:                                           ; preds = %for.body, %if.end, %if.end12, %entry
  %retval.0 = phi i1 [ true, %entry ], [ true, %if.end12 ], [ false, %if.end ], [ false, %for.body ]
  ret i1 %retval.0
}